target datalayout = "e-m:e-p270:32:32-p271:32:32-p272:64:64-i64:64-i128:128-f80:128-n8:16:32:64-S128"
target triple = "x86_64-pc-linux-gnu"

%struct.CVodeMemRec = type { double, ptr, ptr, i32, i32, i32, double, double, ptr, i32, ptr, ptr, i32, ptr, i32, i32, double, double, ptr, i32, i32, i32, ptr, ptr, ptr, i32, i32, ptr, ptr, ptr, i32, double, i32, i32, double, ptr, ptr, i32, ptr, ptr, i32, i32, i32, double, ptr, ptr, [13 x ptr], ptr, ptr, ptr, ptr, ptr, [13 x ptr], ptr, ptr, ptr, ptr, [13 x ptr], ptr, ptr, ptr, ptr, ptr, i32, [13 x ptr], ptr, ptr, ptr, ptr, ptr, i32, double, i32, i32, i32, i32, i32, double, double, double, double, double, double, double, double, [14 x double], [6 x double], [13 x double], double, double, double, double, double, double, double, double, double, double, double, i32, ptr, i32, i64, i32, i32, i32, i32, i32, double, double, double, i64, i64, i64, i64, i64, i64, i64, i64, i64, ptr, i64, i64, ptr, i64, i64, i64, i64, i64, i64, i32, i64, i64, i64, i64, i64, i64, double, double, double, ptr, ptr, ptr, ptr, ptr, i32, i32, i64, double, double, double, i32, double, i32, i32, i32, i32, i32, i32, i32, i32, i32, i32, i32, i32, i32, i32, i32, i32, ptr, ptr, ptr, i32, [6 x [4 x double]], i32, i64, ptr, i32, ptr, ptr, double, double, double, ptr, ptr, ptr, double, double, i32, i32, i64, ptr, i32, i32, ptr, i32 }
%struct.__va_list_tag = type { i32, i32, ptr, ptr }

@stderr = external global ptr, align 8
@.str.101 = private unnamed_addr constant [19 x i8] c"\0A[%s ERROR]  %s\0A  \00", align 1
@.str.102 = private unnamed_addr constant [5 x i8] c"%s\0A\0A\00", align 1

; Function Attrs: nounwind uwtable
define void @cvProcessError(ptr noundef %0, i32 noundef %1, ptr noundef %2, ptr noundef %3, ptr noundef %4, ...) #0 {
  %6 = alloca ptr, align 8
  %7 = alloca i32, align 4
  %8 = alloca ptr, align 8
  %9 = alloca ptr, align 8
  %10 = alloca ptr, align 8
  %11 = alloca [1 x %struct.__va_list_tag], align 16
  %12 = alloca [256 x i8], align 16
  store ptr %0, ptr %6, align 8, !tbaa !7
  store i32 %1, ptr %7, align 4, !tbaa !3
  store ptr %2, ptr %8, align 8, !tbaa !99
  store ptr %3, ptr %9, align 8, !tbaa !99
  store ptr %4, ptr %10, align 8, !tbaa !99
  call void @llvm.lifetime.start.p0(i64 24, ptr %11) #8
  call void @llvm.lifetime.start.p0(i64 256, ptr %12) #8
  %13 = getelementptr inbounds [1 x %struct.__va_list_tag], ptr %11, i64 0, i64 0
  call void @llvm.va_start.p0(ptr %13)
  %14 = getelementptr inbounds [256 x i8], ptr %12, i64 0, i64 0
  %15 = load ptr, ptr %10, align 8, !tbaa !99
  %16 = getelementptr inbounds [1 x %struct.__va_list_tag], ptr %11, i64 0, i64 0
  %17 = call i32 @vsprintf(ptr noundef %14, ptr noundef %15, ptr noundef %16) #8
  %18 = load ptr, ptr %6, align 8, !tbaa !7
  %19 = icmp eq ptr %18, null
  br i1 %19, label %20, label %28

20:                                               ; preds = %5
  %21 = load ptr, ptr @stderr, align 8, !tbaa !31
  %22 = load ptr, ptr %8, align 8, !tbaa !99
  %23 = load ptr, ptr %9, align 8, !tbaa !99
  %24 = call i32 (ptr, ptr, ...) @fprintf(ptr noundef %21, ptr noundef @.str.101, ptr noundef %22, ptr noundef %23) #8
  %25 = load ptr, ptr @stderr, align 8, !tbaa !31
  %26 = getelementptr inbounds [256 x i8], ptr %12, i64 0, i64 0
  %27 = call i32 (ptr, ptr, ...) @fprintf(ptr noundef %25, ptr noundef @.str.102, ptr noundef %26) #8
  br label %39

28:                                               ; preds = %5
  %29 = load ptr, ptr %6, align 8, !tbaa !7
  %30 = getelementptr inbounds nuw %struct.CVodeMemRec, ptr %29, i32 0, i32 169
  %31 = load ptr, ptr %30, align 8, !tbaa !29
  %32 = load i32, ptr %7, align 4, !tbaa !3
  %33 = load ptr, ptr %8, align 8, !tbaa !99
  %34 = load ptr, ptr %9, align 8, !tbaa !99
  %35 = getelementptr inbounds [256 x i8], ptr %12, i64 0, i64 0
  %36 = load ptr, ptr %6, align 8, !tbaa !7
  %37 = getelementptr inbounds nuw %struct.CVodeMemRec, ptr %36, i32 0, i32 170
  %38 = load ptr, ptr %37, align 8, !tbaa !30
  call void %31(i32 noundef %32, ptr noundef %33, ptr noundef %34, ptr noundef %35, ptr noundef %38)
  br label %39

39:                                               ; preds = %28, %20
  %40 = getelementptr inbounds [1 x %struct.__va_list_tag], ptr %11, i64 0, i64 0
  call void @llvm.va_end.p0(ptr %40)
  call void @llvm.lifetime.end.p0(i64 256, ptr %12) #8
  call void @llvm.lifetime.end.p0(i64 24, ptr %11) #8
  ret void
}